target datalayout = "e-m:e-p270:32:32-p271:32:32-p272:64:64-i64:64-i128:128-f80:128-n8:16:32:64-S128"
target triple = "x86_64-pc-linux-gnu"

@.str.144 = private unnamed_addr constant [5 x i8] c"file\00", align 1
@.str.168 = private unnamed_addr constant [3 x i8] c"%v\00", align 1

; Function Attrs: nounwind uwtable
define internal i32 @format_name(ptr noundef %0, ptr noundef %1, i32 noundef %2, ptr noundef %3) #0 {
  %5 = alloca i32, align 4
  %6 = alloca ptr, align 8
  %7 = alloca ptr, align 8
  %8 = alloca i32, align 4
  %9 = alloca ptr, align 8
  %10 = alloca ptr, align 8
  %11 = alloca ptr, align 8
  %12 = alloca ptr, align 8
  %13 = alloca ptr, align 8
  %14 = alloca i32, align 4
  %15 = alloca i32, align 4
  store ptr %0, ptr %6, align 8, !tbaa !73
  store ptr %1, ptr %7, align 8, !tbaa !214
  store i32 %2, ptr %8, align 4, !tbaa !30
  store ptr %3, ptr %9, align 8, !tbaa !73
  call void @llvm.lifetime.start.p0(i64 8, ptr %10) #15
  call void @llvm.lifetime.start.p0(i64 8, ptr %11) #15
  call void @llvm.lifetime.start.p0(i64 8, ptr %12) #15
  store ptr null, ptr %12, align 8, !tbaa !73
  call void @llvm.lifetime.start.p0(i64 8, ptr %13) #15
  store ptr null, ptr %13, align 8, !tbaa !73
  call void @llvm.lifetime.start.p0(i64 4, ptr %14) #15
  store i32 0, ptr %14, align 4, !tbaa !30
  %16 = load ptr, ptr %6, align 8, !tbaa !73
  %17 = call noalias ptr @av_strdup(ptr noundef %16)
  store ptr %17, ptr %12, align 8, !tbaa !73
  %18 = load ptr, ptr %12, align 8, !tbaa !73
  %19 = icmp ne ptr %18, null
  br i1 %19, label %21, label %20

20:                                               ; preds = %4
  store i32 -12, ptr %5, align 4
  store i32 1, ptr %15, align 4
  br label %84

21:                                               ; preds = %4
  %22 = load ptr, ptr %6, align 8, !tbaa !73
  %23 = call ptr @av_stristr(ptr noundef %22, ptr noundef @.str.168)
  %24 = icmp ne ptr %23, null
  br i1 %24, label %28, label %25

25:                                               ; preds = %21
  %26 = load ptr, ptr %12, align 8, !tbaa !73
  %27 = load ptr, ptr %7, align 8, !tbaa !214
  store ptr %26, ptr %27, align 8, !tbaa !73
  store i32 0, ptr %5, align 4
  store i32 1, ptr %15, align 4
  br label %84

28:                                               ; preds = %21
  %29 = load ptr, ptr %9, align 8, !tbaa !73
  %30 = icmp ne ptr %29, null
  br i1 %30, label %40, label %31

31:                                               ; preds = %28
  %32 = load ptr, ptr %7, align 8, !tbaa !214
  %33 = load ptr, ptr %12, align 8, !tbaa !73
  %34 = load i32, ptr %8, align 4, !tbaa !30
  %35 = sext i32 %34 to i64
  %36 = call i32 @replace_int_data_in_filename(ptr noundef %32, ptr noundef %33, i8 noundef signext 118, i64 noundef %35)
  %37 = icmp slt i32 %36, 1
  br i1 %37, label %38, label %39

38:                                               ; preds = %31
  store i32 -22, ptr %14, align 4, !tbaa !30
  br label %82

39:                                               ; preds = %31
  br label %48

40:                                               ; preds = %28
  %41 = load ptr, ptr %7, align 8, !tbaa !214
  %42 = load ptr, ptr %12, align 8, !tbaa !73
  %43 = load ptr, ptr %9, align 8, !tbaa !73
  %44 = call i32 @replace_str_data_in_filename(ptr noundef %41, ptr noundef %42, i8 noundef signext 118, ptr noundef %43)
  %45 = icmp slt i32 %44, 1
  br i1 %45, label %46, label %47

46:                                               ; preds = %40
  store i32 -22, ptr %14, align 4, !tbaa !30
  br label %82

47:                                               ; preds = %40
  br label %48

48:                                               ; preds = %47, %39
  %49 = load ptr, ptr %12, align 8, !tbaa !73
  %50 = call ptr @avio_find_protocol_name(ptr noundef %49)
  store ptr %50, ptr %10, align 8, !tbaa !73
  %51 = load ptr, ptr %12, align 8, !tbaa !73
  %52 = call ptr @av_dirname(ptr noundef %51)
  store ptr %52, ptr %11, align 8, !tbaa !73
  %53 = load ptr, ptr %11, align 8, !tbaa !73
  %54 = call ptr @av_stristr(ptr noundef %53, ptr noundef @.str.168)
  %55 = icmp ne ptr %54, null
  br i1 %55, label %56, label %81

56:                                               ; preds = %48
  %57 = load ptr, ptr %10, align 8, !tbaa !73
  %58 = icmp ne ptr %57, null
  br i1 %58, label %59, label %81

59:                                               ; preds = %56
  %60 = load ptr, ptr %10, align 8, !tbaa !73
  %61 = call i32 @strcmp(ptr noundef %60, ptr noundef @.str.144) #16
  %62 = icmp ne i32 %61, 0
  br i1 %62, label %81, label %63

63:                                               ; preds = %59
  %64 = load ptr, ptr %7, align 8, !tbaa !214
  %65 = load ptr, ptr %64, align 8, !tbaa !73
  %66 = call noalias ptr @av_strdup(ptr noundef %65)
  store ptr %66, ptr %13, align 8, !tbaa !73
  %67 = load ptr, ptr %13, align 8, !tbaa !73
  %68 = call ptr @av_dirname(ptr noundef %67)
  store ptr %68, ptr %11, align 8, !tbaa !73
  %69 = load ptr, ptr %11, align 8, !tbaa !73
  %70 = call i32 @ff_mkdir_p(ptr noundef %69)
  %71 = icmp eq i32 %70, -1
  br i1 %71, label %72, label %80

72:                                               ; preds = %63
  %73 = call ptr @__errno_location() #17
  %74 = load i32, ptr %73, align 4, !tbaa !30
  %75 = icmp ne i32 %74, 17
  br i1 %75, label %76, label %80

76:                                               ; preds = %72
  %77 = call ptr @__errno_location() #17
  %78 = load i32, ptr %77, align 4, !tbaa !30
  %79 = sub nsw i32 0, %78
  store i32 %79, ptr %14, align 4, !tbaa !30
  br label %82

80:                                               ; preds = %72, %63
  br label %81

81:                                               ; preds = %80, %59, %56, %48
  br label %82

82:                                               ; preds = %81, %76, %46, %38
  call void @av_freep(ptr noundef %12)
  call void @av_freep(ptr noundef %13)
  %83 = load i32, ptr %14, align 4, !tbaa !30
  store i32 %83, ptr %5, align 4
  store i32 1, ptr %15, align 4
  br label %84

84:                                               ; preds = %82, %25, %20
  call void @llvm.lifetime.end.p0(i64 4, ptr %14) #15
  call void @llvm.lifetime.end.p0(i64 8, ptr %13) #15
  call void @llvm.lifetime.end.p0(i64 8, ptr %12) #15
  call void @llvm.lifetime.end.p0(i64 8, ptr %11) #15
  call void @llvm.lifetime.end.p0(i64 8, ptr %10) #15
  %85 = load i32, ptr %5, align 4
  ret i32 %85
}