; Function Attrs: nounwind uwtable
define internal fastcc range(i32 -2147483647, -2147483648) i32 @format_name(ptr noundef %0, ptr noundef %1, i32 noundef %2, ptr noundef %3) unnamed_addr #0 {
  %5 = alloca ptr, align 8
  %6 = alloca ptr, align 8
  call void @llvm.lifetime.start.p0(i64 8, ptr nonnull %5) #17
  call void @llvm.lifetime.start.p0(i64 8, ptr nonnull %6) #17
  store ptr null, ptr %6, align 8, !tbaa !66
  %7 = tail call noalias ptr @av_strdup(ptr noundef %0) #17
  store ptr %7, ptr %5, align 8, !tbaa !66
  %.not = icmp eq ptr %7, null
  br i1 %.not, label %38, label %8

8:                                                ; preds = %4
  %9 = tail call ptr @av_stristr(ptr noundef %0, ptr noundef nonnull @.str.168) #17
  %.not19 = icmp eq ptr %9, null
  br i1 %.not19, label %10, label %11

10:                                               ; preds = %8
  store ptr %7, ptr %1, align 8, !tbaa !66
  br label %38

11:                                               ; preds = %8
  %.not20 = icmp eq ptr %3, null
  br i1 %.not20, label %12, label %16

12:                                               ; preds = %11
  %13 = sext i32 %2 to i64
  %14 = tail call fastcc i32 @replace_int_data_in_filename(ptr noundef %1, ptr noundef nonnull %7, i8 noundef signext 118, i64 noundef %13)
  %15 = icmp slt i32 %14, 1
  br i1 %15, label %37, label %19

16:                                               ; preds = %11
  %17 = tail call fastcc i32 @replace_str_data_in_filename(ptr noundef %1, ptr noundef nonnull %7, ptr noundef %3)
  %18 = icmp slt i32 %17, 1
  br i1 %18, label %37, label %19

19:                                               ; preds = %16, %12
  %20 = tail call ptr @avio_find_protocol_name(ptr noundef nonnull %7) #17
  %21 = tail call ptr @av_dirname(ptr noundef nonnull %7) #17
  %22 = tail call ptr @av_stristr(ptr noundef %21, ptr noundef nonnull @.str.168) #17
  %23 = icmp ne ptr %22, null
  %24 = icmp ne ptr %20, null
  %or.cond = select i1 %23, i1 %24, i1 false
  br i1 %or.cond, label %25, label %37

25:                                               ; preds = %19
  %26 = tail call i32 @strcmp(ptr noundef nonnull dereferenceable(1) %20, ptr noundef nonnull dereferenceable(5) @.str.144) #18
  %.not21 = icmp eq i32 %26, 0
  br i1 %.not21, label %27, label %37

27:                                               ; preds = %25
  %28 = load ptr, ptr %1, align 8, !tbaa !66
  %29 = tail call noalias ptr @av_strdup(ptr noundef %28) #17
  store ptr %29, ptr %6, align 8, !tbaa !66
  %30 = tail call ptr @av_dirname(ptr noundef %29) #17
  %31 = tail call i32 @ff_mkdir_p(ptr noundef %30) #17
  %32 = icmp eq i32 %31, -1
  br i1 %32, label %33, label %37

33:                                               ; preds = %27
  %34 = tail call ptr @__errno_location() #19
  %35 = load i32, ptr %34, align 4, !tbaa !65
  %.not22 = icmp eq i32 %35, 17
  %36 = sub nsw i32 0, %35
  %spec.select = select i1 %.not22, i32 0, i32 %36
  br label %37

37:                                               ; preds = %33, %16, %12, %19, %25, %27
  %.0 = phi i32 [ 0, %25 ], [ 0, %27 ], [ 0, %19 ], [ -22, %12 ], [ -22, %16 ], [ %spec.select, %33 ]
  call void @av_freep(ptr noundef nonnull %5) #17
  call void @av_freep(ptr noundef nonnull %6) #17
  br label %38

38:                                               ; preds = %4, %37, %10
  %.015 = phi i32 [ %.0, %37 ], [ 0, %10 ], [ -12, %4 ]
  call void @llvm.lifetime.end.p0(i64 8, ptr nonnull %6) #17
  call void @llvm.lifetime.end.p0(i64 8, ptr nonnull %5) #17
  ret i32 %.015
}